; Function Attrs: nounwind uwtable
define internal fastcc range(i32 0, 2) i32 @tls_construct_cke_srp(ptr noundef %0, ptr noundef %1) unnamed_addr #0 {
  %3 = alloca ptr, align 8
  call void @llvm.lifetime.start.p0(i64 8, ptr nonnull %3) #8
  store ptr null, ptr %3, align 8, !tbaa !168
  %4 = getelementptr inbounds nuw i8, ptr %0, i64 3096
  %5 = load ptr, ptr %4, align 8, !tbaa !247
  %6 = icmp eq ptr %5, null
  br i1 %6, label %.sink.split, label %7

7:                                                ; preds = %2
  %8 = tail call i32 @BN_num_bits(ptr noundef nonnull %5) #8
  %9 = add nsw i32 %8, 7
  %10 = sdiv i32 %9, 8
  %11 = sext i32 %10 to i64
  %12 = call i32 @WPACKET_sub_allocate_bytes__(ptr noundef %1, i64 noundef %11, ptr noundef nonnull %3, i64 noundef 2) #8
  %.not = icmp eq i32 %12, 0
  br i1 %.not, label %.sink.split, label %13

13:                                               ; preds = %7
  %14 = load ptr, ptr %4, align 8, !tbaa !247
  %15 = load ptr, ptr %3, align 8, !tbaa !168
  %16 = call i32 @BN_bn2bin(ptr noundef %14, ptr noundef %15) #8
  %17 = getelementptr inbounds nuw i8, ptr %0, i64 2304
  %18 = load ptr, ptr %17, align 8, !tbaa !82
  %19 = getelementptr inbounds nuw i8, ptr %18, i64 864
  %20 = load ptr, ptr %19, align 8, !tbaa !248
  call void @CRYPTO_free(ptr noundef %20, ptr noundef nonnull @.str, i32 noundef 3527) #8
  %21 = getelementptr inbounds nuw i8, ptr %0, i64 3056
  %22 = load ptr, ptr %21, align 8, !tbaa !249
  %23 = call noalias ptr @CRYPTO_strdup(ptr noundef %22, ptr noundef nonnull @.str, i32 noundef 3528) #8
  %24 = load ptr, ptr %17, align 8, !tbaa !82
  %25 = getelementptr inbounds nuw i8, ptr %24, i64 864
  store ptr %23, ptr %25, align 8, !tbaa !248
  %26 = icmp eq ptr %23, null
  br i1 %26, label %.sink.split, label %27

.sink.split:                                      ; preds = %13, %2, %7
  %.sink11 = phi i32 [ 3522, %7 ], [ 3522, %2 ], [ 3530, %13 ]
  %.sink = phi i32 [ 786691, %7 ], [ 786691, %2 ], [ 524303, %13 ]
  call void @ERR_new() #8
  call void @ERR_set_debug(ptr noundef nonnull @.str, i32 noundef %.sink11, ptr noundef nonnull @__func__.tls_construct_cke_srp) #8
  call void (ptr, i32, i32, ptr, ...) @ossl_statem_fatal(ptr noundef nonnull %0, i32 noundef 80, i32 noundef %.sink, ptr noundef null) #8
  br label %27

27:                                               ; preds = %.sink.split, %13
  %.0 = phi i32 [ 1, %13 ], [ 0, %.sink.split ]
  call void @llvm.lifetime.end.p0(i64 8, ptr nonnull %3) #8
  ret i32 %.0
}